; Function Attrs: nofree norecurse nosync nounwind memory(readwrite, inaccessiblemem: none) uwtable
define void @Abc_SclUnmarkCriticalNodeWindow(ptr noundef readonly captures(none) %0, ptr noundef readonly captures(none) %1) local_unnamed_addr #3 {
  %3 = getelementptr i8, ptr %1, i64 4
  %.val810 = load i32, ptr %3, align 4, !tbaa !28
  %4 = icmp sgt i32 %.val810, 0
  br i1 %4, label %.lr.ph, label %.critedge

.lr.ph:                                           ; preds = %2
  %5 = getelementptr inbounds nuw i8, ptr %0, i64 8
  %6 = getelementptr i8, ptr %1, i64 8
  br label %7

7:                                                ; preds = %.lr.ph, %21
  %.val813 = phi i32 [ %.val810, %.lr.ph ], [ %.val8, %21 ]
  %indvars.iv = phi i64 [ 0, %.lr.ph ], [ %indvars.iv.next, %21 ]
  %8 = load ptr, ptr %5, align 8, !tbaa !48
  %.val = load ptr, ptr %6, align 8, !tbaa !30
  %9 = getelementptr inbounds nuw i32, ptr %.val, i64 %indvars.iv
  %10 = load i32, ptr %9, align 4, !tbaa !31
  %11 = getelementptr i8, ptr %8, i64 32
  %.val9 = load ptr, ptr %11, align 8, !tbaa !34
  %12 = getelementptr i8, ptr %.val9, i64 8
  %.val9.val = load ptr, ptr %12, align 8, !tbaa !35
  %13 = sext i32 %10 to i64
  %14 = getelementptr inbounds ptr, ptr %.val9.val, i64 %13
  %15 = load ptr, ptr %14, align 8, !tbaa !37
  %16 = icmp eq ptr %15, null
  br i1 %16, label %21, label %17

17:                                               ; preds = %7
  %18 = getelementptr inbounds nuw i8, ptr %15, i64 20
  %19 = load i32, ptr %18, align 4
  %20 = and i32 %19, -17
  store i32 %20, ptr %18, align 4
  %.val8.pre = load i32, ptr %3, align 4, !tbaa !28
  br label %21

21:                                               ; preds = %17, %7
  %.val8 = phi i32 [ %.val8.pre, %17 ], [ %.val813, %7 ]
  %indvars.iv.next = add nuw nsw i64 %indvars.iv, 1
  %22 = sext i32 %.val8 to i64
  %23 = icmp slt i64 %indvars.iv.next, %22
  br i1 %23, label %7, label %.critedge, !llvm.loop !76

.critedge:                                        ; preds = %21, %2
  ret void
}